; ModuleID = '23/106.c'
source_filename = "23/106.c"
target datalayout = "e-m:e-p270:32:32-p271:32:32-p272:64:64-i64:64-f80:128-n8:16:32:64-S128"
target triple = "x86_64-pc-linux-gnu"

@.str = private unnamed_addr constant [4 x i8] c"%s \00", align 1
@.str.1 = private unnamed_addr constant [3 x i8] c"%s\00", align 1

; Function Attrs: noinline nounwind uwtable
define dso_local void @main() #0 {
  %1 = alloca [100 x i8], align 16
  %2 = alloca [100 x [100 x i8]], align 16
  %3 = alloca i32, align 4
  %4 = alloca i32, align 4
  %5 = alloca i32, align 4
  %6 = alloca i32, align 4
  %7 = alloca i32, align 4
  %8 = alloca i32, align 4
  %9 = alloca i32, align 4
  %10 = alloca i8, align 1
  store i32 0, i32* %4, align 4
  store i32 0, i32* %5, align 4
  store i32 0, i32* %7, align 4
  store i32 0, i32* %8, align 4
  br label %11

11:                                               ; preds = %29, %0
  %12 = load i32, i32* %8, align 4
  %13 = icmp slt i32 %12, 100
  br i1 %13, label %14, label %32

14:                                               ; preds = %11
  store i32 0, i32* %9, align 4
  br label %15

15:                                               ; preds = %25, %14
  %16 = load i32, i32* %9, align 4
  %17 = icmp slt i32 %16, 100
  br i1 %17, label %18, label %28

18:                                               ; preds = %15
  %19 = load i32, i32* %8, align 4
  %20 = sext i32 %19 to i64
  %21 = getelementptr inbounds [100 x [100 x i8]], [100 x [100 x i8]]* %2, i64 0, i64 %20
  %22 = load i32, i32* %9, align 4
  %23 = sext i32 %22 to i64
  %24 = getelementptr inbounds [100 x i8], [100 x i8]* %21, i64 0, i64 %23
  store i8 0, i8* %24, align 1
  br label %25

25:                                               ; preds = %18
  %26 = load i32, i32* %9, align 4
  %27 = add nsw i32 %26, 1
  store i32 %27, i32* %9, align 4
  br label %15

28:                                               ; preds = %15
  br label %29

29:                                               ; preds = %28
  %30 = load i32, i32* %8, align 4
  %31 = add nsw i32 %30, 1
  store i32 %31, i32* %8, align 4
  br label %11

32:                                               ; preds = %11
  %33 = getelementptr inbounds [100 x i8], [100 x i8]* %1, i64 0, i64 0
  %34 = call i32 (i8*, ...) bitcast (i32 (...)* @gets to i32 (i8*, ...)*)(i8* %33)
  %35 = getelementptr inbounds [100 x i8], [100 x i8]* %1, i64 0, i64 0
  %36 = call i64 @strlen(i8* %35) #3
  %37 = trunc i64 %36 to i32
  store i32 %37, i32* %6, align 4
  store i32 0, i32* %3, align 4
  br label %38

38:                                               ; preds = %70, %32
  %39 = load i32, i32* %3, align 4
  %40 = load i32, i32* %6, align 4
  %41 = icmp slt i32 %39, %40
  br i1 %41, label %42, label %73

42:                                               ; preds = %38
  %43 = load i32, i32* %3, align 4
  %44 = sext i32 %43 to i64
  %45 = getelementptr inbounds [100 x i8], [100 x i8]* %1, i64 0, i64 %44
  %46 = load i8, i8* %45, align 1
  store i8 %46, i8* %10, align 1
  %47 = sext i8 %46 to i32
  %48 = icmp ne i32 %47, 32
  br i1 %48, label %49, label %69

49:                                               ; preds = %42
  %50 = load i32, i32* %3, align 4
  %51 = add nsw i32 %50, 1
  %52 = sext i32 %51 to i64
  %53 = getelementptr inbounds [100 x i8], [100 x i8]* %1, i64 0, i64 %52
  %54 = load i8, i8* %53, align 1
  store i8 %54, i8* %10, align 1
  %55 = sext i8 %54 to i32
  %56 = icmp eq i32 %55, 32
  br i1 %56, label %65, label %57

57:                                               ; preds = %49
  %58 = load i32, i32* %3, align 4
  %59 = add nsw i32 %58, 1
  %60 = sext i32 %59 to i64
  %61 = getelementptr inbounds [100 x i8], [100 x i8]* %1, i64 0, i64 %60
  %62 = load i8, i8* %61, align 1
  store i8 %62, i8* %10, align 1
  %63 = sext i8 %62 to i32
  %64 = icmp eq i32 %63, 0
  br i1 %64, label %65, label %68

65:                                               ; preds = %57, %49
  %66 = load i32, i32* %7, align 4
  %67 = add nsw i32 %66, 1
  store i32 %67, i32* %7, align 4
  br label %68

68:                                               ; preds = %65, %57
  br label %69

69:                                               ; preds = %68, %42
  br label %70

70:                                               ; preds = %69
  %71 = load i32, i32* %3, align 4
  %72 = add nsw i32 %71, 1
  store i32 %72, i32* %3, align 4
  br label %38

73:                                               ; preds = %38
  store i32 0, i32* %3, align 4
  store i32 0, i32* %4, align 4
  br label %74

74:                                               ; preds = %102, %73
  %75 = load i32, i32* %3, align 4
  %76 = load i32, i32* %6, align 4
  %77 = icmp slt i32 %75, %76
  br i1 %77, label %78, label %105

78:                                               ; preds = %74
  %79 = load i32, i32* %3, align 4
  %80 = sext i32 %79 to i64
  %81 = getelementptr inbounds [100 x i8], [100 x i8]* %1, i64 0, i64 %80
  %82 = load i8, i8* %81, align 1
  store i8 %82, i8* %10, align 1
  %83 = sext i8 %82 to i32
  %84 = icmp ne i32 %83, 32
  br i1 %84, label %85, label %98

85:                                               ; preds = %78
  %86 = load i32, i32* %3, align 4
  %87 = sext i32 %86 to i64
  %88 = getelementptr inbounds [100 x i8], [100 x i8]* %1, i64 0, i64 %87
  %89 = load i8, i8* %88, align 1
  %90 = load i32, i32* %4, align 4
  %91 = sext i32 %90 to i64
  %92 = getelementptr inbounds [100 x [100 x i8]], [100 x [100 x i8]]* %2, i64 0, i64 %91
  %93 = load i32, i32* %5, align 4
  %94 = sext i32 %93 to i64
  %95 = getelementptr inbounds [100 x i8], [100 x i8]* %92, i64 0, i64 %94
  store i8 %89, i8* %95, align 1
  %96 = load i32, i32* %5, align 4
  %97 = add nsw i32 %96, 1
  store i32 %97, i32* %5, align 4
  br label %101

98:                                               ; preds = %78
  %99 = load i32, i32* %4, align 4
  %100 = add nsw i32 %99, 1
  store i32 %100, i32* %4, align 4
  store i32 0, i32* %5, align 4
  br label %101

101:                                              ; preds = %98, %85
  br label %102

102:                                              ; preds = %101
  %103 = load i32, i32* %3, align 4
  %104 = add nsw i32 %103, 1
  store i32 %104, i32* %3, align 4
  br label %74

105:                                              ; preds = %74
  store i32 0, i32* %4, align 4
  br label %106

106:                                              ; preds = %120, %105
  %107 = load i32, i32* %4, align 4
  %108 = load i32, i32* %7, align 4
  %109 = sub nsw i32 %108, 1
  %110 = icmp slt i32 %107, %109
  br i1 %110, label %111, label %123

111:                                              ; preds = %106
  %112 = load i32, i32* %7, align 4
  %113 = sub nsw i32 %112, 1
  %114 = load i32, i32* %4, align 4
  %115 = sub nsw i32 %113, %114
  %116 = sext i32 %115 to i64
  %117 = getelementptr inbounds [100 x [100 x i8]], [100 x [100 x i8]]* %2, i64 0, i64 %116
  %118 = getelementptr inbounds [100 x i8], [100 x i8]* %117, i64 0, i64 0
  %119 = call i32 (i8*, ...) @printf(i8* getelementptr inbounds ([4 x i8], [4 x i8]* @.str, i64 0, i64 0), i8* %118)
  br label %120

120:                                              ; preds = %111
  %121 = load i32, i32* %4, align 4
  %122 = add nsw i32 %121, 1
  store i32 %122, i32* %4, align 4
  br label %106

123:                                              ; preds = %106
  %124 = getelementptr inbounds [100 x [100 x i8]], [100 x [100 x i8]]* %2, i64 0, i64 0
  %125 = getelementptr inbounds [100 x i8], [100 x i8]* %124, i64 0, i64 0
  %126 = call i32 (i8*, ...) @printf(i8* getelementptr inbounds ([3 x i8], [3 x i8]* @.str.1, i64 0, i64 0), i8* %125)
  ret void
}

declare dso_local i32 @gets(...) #1

; Function Attrs: nounwind readonly
declare dso_local i64 @strlen(i8*) #2

declare dso_local i32 @printf(i8*, ...) #1


!llvm.module.flags = !{!0}
!llvm.ident = !{!1}

!0 = !{i32 1, !"wchar_size", i32 4}
!1 = !{!"clang version 10.0.0-4ubuntu1 "}
